target datalayout = "e-m:e-p270:32:32-p271:32:32-p272:64:64-i64:64-i128:128-f80:128-n8:16:32:64-S128"
target triple = "x86_64-pc-linux-gnu"

%union.pthread_cond_t = type { %struct.__pthread_cond_s }
%struct.__pthread_cond_s = type { %union.__atomic_wide_counter, %union.__atomic_wide_counter, [2 x i32], [2 x i32], i32, i32, [2 x i32] }
%union.__atomic_wide_counter = type { i64 }
%union.pthread_mutex_t = type { %struct.__pthread_mutex_s }
%struct.__pthread_mutex_s = type { i32, i32, i32, i32, i32, i16, i16, %struct.__pthread_internal_list }
%struct.__pthread_internal_list = type { ptr, ptr }
%struct.stepd_step_rec_t = type { ptr, ptr, i32, %union.pthread_cond_t, %union.pthread_mutex_t, %struct.slurm_step_id_msg, i32, i32, i32, i32, i32, i32, ptr, ptr, i32, i32, ptr, i32, i32, i32, i32, i32, ptr, ptr, ptr, ptr, i32, i32, i64, i64, i16, i32, ptr, ptr, ptr, i32, ptr, i32, ptr, i32, ptr, i16, i32, i32, i32, ptr, i32, ptr, ptr, ptr, ptr, i32, i32, ptr, ptr, i8, i8, i8, i64, i32, ptr, ptr, ptr, ptr, ptr, ptr, ptr, ptr, ptr, ptr, i32, i32, ptr, i8, %union.pthread_cond_t, %union.pthread_mutex_t, i64, ptr, i32, i32, i32, ptr, i64, ptr, ptr, i8, ptr, i16, ptr, ptr, ptr, ptr, ptr, ptr, i64, ptr, i64, ptr, i16, i8, i16, i32, ptr, i16, ptr, ptr, i16, ptr, ptr, ptr, i8 }
%struct.slurm_step_id_msg = type { i64, i32, i32, i32 }

@.str.102 = private unnamed_addr constant [20 x i8] c"drop_privileges: %m\00", align 1
@.str.108 = private unnamed_addr constant [5 x i8] c"/tmp\00", align 1
@.str.115 = private unnamed_addr constant [50 x i8] c"couldn't chdir to `%s': %m: going to /tmp instead\00", align 1
@.str.116 = private unnamed_addr constant [38 x i8] c"couldn't chdir to /tmp either. dying.\00", align 1
@.str.146 = private unnamed_addr constant [28 x i8] c"container_g_join failed: %u\00", align 1
@.str.147 = private unnamed_addr constant [34 x i8] c"spank_task_init_privileged failed\00", align 1
@.str.148 = private unnamed_addr constant [27 x i8] c"couldn't chdir to `%s': %m\00", align 1
@.str.149 = private unnamed_addr constant [22 x i8] c"%s: chdir(%s) success\00", align 1
@__func__._pre_task_child_privileged = private unnamed_addr constant [27 x i8] c"_pre_task_child_privileged\00", align 1

; Function Attrs: nounwind uwtable
define internal i32 @_pre_task_child_privileged(ptr noundef %0, i32 noundef %1, ptr noundef %2) #0 {
  %4 = alloca i32, align 4
  %5 = alloca ptr, align 8
  %6 = alloca i32, align 4
  %7 = alloca ptr, align 8
  %8 = alloca i32, align 4
  %9 = alloca i32, align 4
  %10 = alloca i32, align 4
  store ptr %0, ptr %5, align 8
  store i32 %1, ptr %6, align 4
  store ptr %2, ptr %7, align 8
  call void @llvm.lifetime.start.p0(i64 4, ptr %8) #12
  store i32 0, ptr %8, align 4
  call void @llvm.lifetime.start.p0(i64 4, ptr %9) #12
  store i32 0, ptr %9, align 4
  %11 = load ptr, ptr %7, align 8
  %12 = call i32 @reclaim_privileges(ptr noundef %11)
  %13 = icmp slt i32 %12, 0
  br i1 %13, label %14, label %15

14:                                               ; preds = %3
  store i32 -1, ptr %4, align 4
  store i32 1, ptr %10, align 4
  br label %109

15:                                               ; preds = %3
  %16 = call i32 @set_oom_adj(i32 noundef 0)
  %17 = load ptr, ptr %5, align 8
  %18 = getelementptr inbounds nuw %struct.stepd_step_rec_t, ptr %17, i32 0, i32 80
  %19 = load i32, ptr %18, align 8
  %20 = zext i32 %19 to i64
  %21 = and i64 %20, 64
  %22 = icmp ne i64 %21, 0
  br i1 %22, label %38, label %23

23:                                               ; preds = %15
  %24 = load ptr, ptr %5, align 8
  %25 = getelementptr inbounds nuw %struct.stepd_step_rec_t, ptr %24, i32 0, i32 5
  %26 = load ptr, ptr %5, align 8
  %27 = getelementptr inbounds nuw %struct.stepd_step_rec_t, ptr %26, i32 0, i32 46
  %28 = load i32, ptr %27, align 8
  %29 = call i32 @container_g_join(ptr noundef %25, i32 noundef %28, i1 noundef zeroext false)
  %30 = icmp ne i32 %29, 0
  br i1 %30, label %31, label %37

31:                                               ; preds = %23
  %32 = load ptr, ptr %5, align 8
  %33 = getelementptr inbounds nuw %struct.stepd_step_rec_t, ptr %32, i32 0, i32 5
  %34 = getelementptr inbounds nuw %struct.slurm_step_id_msg, ptr %33, i32 0, i32 1
  %35 = load i32, ptr %34, align 8
  %36 = call i32 (ptr, ...) @error(ptr noundef @.str.146, i32 noundef %35)
  call void @exit(i32 noundef 1) #16
  unreachable

37:                                               ; preds = %23
  store i32 1, ptr %8, align 4
  br label %38

38:                                               ; preds = %37, %15
  %39 = load ptr, ptr %5, align 8
  %40 = load i32, ptr %6, align 4
  %41 = call i32 @spank_task_privileged(ptr noundef %39, i32 noundef %40)
  %42 = icmp slt i32 %41, 0
  br i1 %42, label %43, label %45

43:                                               ; preds = %38
  %44 = call i32 (ptr, ...) @error(ptr noundef @.str.147)
  store i32 %44, ptr %4, align 4
  store i32 1, ptr %10, align 4
  br label %109

45:                                               ; preds = %38
  %46 = load ptr, ptr %5, align 8
  %47 = load ptr, ptr %7, align 8
  %48 = call i32 @drop_privileges(ptr noundef %46, i1 noundef zeroext true, ptr noundef %47, i1 noundef zeroext false)
  store i32 %48, ptr %9, align 4
  %49 = load i32, ptr %9, align 4
  %50 = icmp ne i32 %49, 0
  br i1 %50, label %51, label %54

51:                                               ; preds = %45
  %52 = call i32 (ptr, ...) @error(ptr noundef @.str.102)
  %53 = load i32, ptr %9, align 4
  store i32 %53, ptr %4, align 4
  store i32 1, ptr %10, align 4
  br label %109

54:                                               ; preds = %45
  %55 = load ptr, ptr %5, align 8
  %56 = getelementptr inbounds nuw %struct.stepd_step_rec_t, ptr %55, i32 0, i32 1
  %57 = load ptr, ptr %56, align 8
  %58 = icmp ne ptr %57, null
  br i1 %58, label %59, label %86

59:                                               ; preds = %54
  %60 = load ptr, ptr %5, align 8
  %61 = getelementptr inbounds nuw %struct.stepd_step_rec_t, ptr %60, i32 0, i32 34
  %62 = load ptr, ptr %61, align 8
  %63 = call i32 @chdir(ptr noundef %62) #12
  %64 = icmp slt i32 %63, 0
  br i1 %64, label %65, label %72

65:                                               ; preds = %59
  %66 = load ptr, ptr %5, align 8
  %67 = getelementptr inbounds nuw %struct.stepd_step_rec_t, ptr %66, i32 0, i32 34
  %68 = load ptr, ptr %67, align 8
  %69 = call i32 (ptr, ...) @error(ptr noundef @.str.148, ptr noundef %68)
  %70 = call ptr @__errno_location() #13
  %71 = load i32, ptr %70, align 4
  store i32 %71, ptr %4, align 4
  store i32 1, ptr %10, align 4
  br label %109

72:                                               ; preds = %59
  br label %73

73:                                               ; preds = %72
  br label %74

74:                                               ; preds = %73
  %75 = call i32 @get_log_level()
  %76 = icmp sge i32 %75, 6
  br i1 %76, label %77, label %81

77:                                               ; preds = %74
  %78 = load ptr, ptr %5, align 8
  %79 = getelementptr inbounds nuw %struct.stepd_step_rec_t, ptr %78, i32 0, i32 34
  %80 = load ptr, ptr %79, align 8
  call void (i32, ptr, ...) @log_var(i32 noundef 6, ptr noundef @.str.149, ptr noundef @__func__._pre_task_child_privileged, ptr noundef %80)
  br label %81

81:                                               ; preds = %77, %74
  br label %82

82:                                               ; preds = %81
  br label %83

83:                                               ; preds = %82
  br label %84

84:                                               ; preds = %83
  br label %85

85:                                               ; preds = %84
  br label %107

86:                                               ; preds = %54
  %87 = load i32, ptr %8, align 4
  %88 = icmp ne i32 %87, 0
  br i1 %88, label %89, label %106

89:                                               ; preds = %86
  %90 = load ptr, ptr %5, align 8
  %91 = getelementptr inbounds nuw %struct.stepd_step_rec_t, ptr %90, i32 0, i32 34
  %92 = load ptr, ptr %91, align 8
  %93 = call i32 @chdir(ptr noundef %92) #12
  %94 = icmp slt i32 %93, 0
  br i1 %94, label %95, label %105

95:                                               ; preds = %89
  %96 = load ptr, ptr %5, align 8
  %97 = getelementptr inbounds nuw %struct.stepd_step_rec_t, ptr %96, i32 0, i32 34
  %98 = load ptr, ptr %97, align 8
  %99 = call i32 (ptr, ...) @error(ptr noundef @.str.115, ptr noundef %98)
  %100 = call i32 @chdir(ptr noundef @.str.108) #12
  %101 = icmp slt i32 %100, 0
  br i1 %101, label %102, label %104

102:                                              ; preds = %95
  %103 = call i32 (ptr, ...) @error(ptr noundef @.str.116)
  store i32 -1, ptr %4, align 4
  store i32 1, ptr %10, align 4
  br label %109

104:                                              ; preds = %95
  br label %105

105:                                              ; preds = %104, %89
  br label %106

106:                                              ; preds = %105, %86
  br label %107

107:                                              ; preds = %106, %85
  %108 = load i32, ptr %9, align 4
  store i32 %108, ptr %4, align 4
  store i32 1, ptr %10, align 4
  br label %109

109:                                              ; preds = %107, %102, %65, %51, %43, %14
  call void @llvm.lifetime.end.p0(i64 4, ptr %9) #12
  call void @llvm.lifetime.end.p0(i64 4, ptr %8) #12
  %110 = load i32, ptr %4, align 4
  ret i32 %110
}