; Function Attrs: nounwind uwtable
define internal fastcc i32 @_pre_task_child_privileged(ptr noundef %0, i32 noundef %1, ptr noundef nonnull %2) unnamed_addr #0 {
  %4 = tail call i32 @reclaim_privileges(ptr noundef nonnull %2) #17
  %5 = icmp slt i32 %4, 0
  br i1 %5, label %60, label %6

6:                                                ; preds = %3
  %7 = tail call i32 @set_oom_adj(i32 noundef 0) #17
  %8 = getelementptr inbounds nuw i8, ptr %0, i64 680
  %9 = load i32, ptr %8, align 8
  %10 = and i32 %9, 64
  %.not.not = icmp eq i32 %10, 0
  br i1 %.not.not, label %11, label %20

11:                                               ; preds = %6
  %12 = getelementptr inbounds nuw i8, ptr %0, i64 112
  %13 = getelementptr inbounds nuw i8, ptr %0, i64 376
  %14 = load i32, ptr %13, align 8
  %15 = tail call i32 @container_g_join(ptr noundef nonnull %12, i32 noundef %14, i1 noundef zeroext false) #17
  %.not21 = icmp eq i32 %15, 0
  br i1 %.not21, label %20, label %16

16:                                               ; preds = %11
  %17 = getelementptr inbounds nuw i8, ptr %0, i64 120
  %18 = load i32, ptr %17, align 8
  %19 = tail call i32 (ptr, ...) @error(ptr noundef nonnull @.str.146, i32 noundef %18) #17
  tail call void @exit(i32 noundef 1) #21
  unreachable

20:                                               ; preds = %11, %6
  %21 = tail call i32 @spank_task_privileged(ptr noundef nonnull %0, i32 noundef %1) #17
  %22 = icmp slt i32 %21, 0
  br i1 %22, label %23, label %25

23:                                               ; preds = %20
  %24 = tail call i32 (ptr, ...) @error(ptr noundef nonnull @.str.147) #17
  br label %60

25:                                               ; preds = %20
  %26 = tail call i32 @drop_privileges(ptr noundef nonnull %0, i1 noundef zeroext true, ptr noundef nonnull %2, i1 noundef zeroext false) #17
  %.not22 = icmp eq i32 %26, 0
  br i1 %.not22, label %29, label %27

27:                                               ; preds = %25
  %28 = tail call i32 (ptr, ...) @error(ptr noundef nonnull @.str.102) #17
  br label %60

29:                                               ; preds = %25
  %30 = getelementptr inbounds nuw i8, ptr %0, i64 8
  %31 = load ptr, ptr %30, align 8
  %.not23 = icmp eq ptr %31, null
  br i1 %.not23, label %47, label %32

32:                                               ; preds = %29
  %33 = getelementptr inbounds nuw i8, ptr %0, i64 296
  %34 = load ptr, ptr %33, align 8
  %35 = tail call i32 @chdir(ptr noundef %34) #17
  %36 = icmp slt i32 %35, 0
  br i1 %36, label %37, label %42

37:                                               ; preds = %32
  %38 = load ptr, ptr %33, align 8
  %39 = tail call i32 (ptr, ...) @error(ptr noundef nonnull @.str.148, ptr noundef %38) #17
  %40 = tail call ptr @__errno_location() #18
  %41 = load i32, ptr %40, align 4
  br label %60

42:                                               ; preds = %32
  %43 = tail call i32 @get_log_level() #17
  %44 = icmp sgt i32 %43, 5
  br i1 %44, label %45, label %60

45:                                               ; preds = %42
  %46 = load ptr, ptr %33, align 8
  tail call void (i32, ptr, ...) @log_var(i32 noundef 6, ptr noundef nonnull @.str.149, ptr noundef nonnull @__func__._pre_task_child_privileged, ptr noundef %46) #17
  br label %60

47:                                               ; preds = %29
  br i1 %.not.not, label %48, label %60

48:                                               ; preds = %47
  %49 = getelementptr inbounds nuw i8, ptr %0, i64 296
  %50 = load ptr, ptr %49, align 8
  %51 = tail call i32 @chdir(ptr noundef %50) #17
  %52 = icmp slt i32 %51, 0
  br i1 %52, label %53, label %60

53:                                               ; preds = %48
  %54 = load ptr, ptr %49, align 8
  %55 = tail call i32 (ptr, ...) @error(ptr noundef nonnull @.str.115, ptr noundef %54) #17
  %56 = tail call i32 @chdir(ptr noundef nonnull @.str.108) #17
  %57 = icmp slt i32 %56, 0
  br i1 %57, label %58, label %60

58:                                               ; preds = %53
  %59 = tail call i32 (ptr, ...) @error(ptr noundef nonnull @.str.116) #17
  br label %60

60:                                               ; preds = %45, %42, %48, %53, %47, %3, %58, %37, %27, %23
  %.019 = phi i32 [ %24, %23 ], [ %26, %27 ], [ %41, %37 ], [ -1, %58 ], [ -1, %3 ], [ 0, %47 ], [ 0, %53 ], [ 0, %48 ], [ 0, %42 ], [ 0, %45 ]
  ret i32 %.019
}